target datalayout = "e-m:e-p270:32:32-p271:32:32-p272:64:64-i64:64-i128:128-f80:128-n8:16:32:64-S128"
target triple = "x86_64-pc-linux-gnu"

%struct.GtkRequisition = type { i32, i32 }
%struct._GtkWidget = type { %struct.GtkObject, i16, i8, i8, ptr, ptr, %struct.GtkRequisition, %struct.GtkAllocation, ptr, ptr }
%struct.GtkObject = type { %struct.GObject, i32 }
%struct.GObject = type { %struct.GTypeInstance, i32, ptr }
%struct.GTypeInstance = type { ptr }
%struct.GtkAllocation = type { i32, i32, i32, i32 }
%struct.GtkStyle = type { %struct.GObject, [5 x %struct.GdkColor], [5 x %struct.GdkColor], [5 x %struct.GdkColor], [5 x %struct.GdkColor], [5 x %struct.GdkColor], [5 x %struct.GdkColor], [5 x %struct.GdkColor], [5 x %struct.GdkColor], %struct.GdkColor, %struct.GdkColor, ptr, i32, i32, [5 x ptr], [5 x ptr], [5 x ptr], [5 x ptr], [5 x ptr], [5 x ptr], [5 x ptr], [5 x ptr], ptr, ptr, [5 x ptr] }
%struct.GdkColor = type { i32, i16, i16, i16 }

@fp_gtk_fixed_new = internal global ptr null, align 8
@fp_gtk_window_new = internal global ptr null, align 8
@fp_gtk_container_add = internal global ptr null, align 8
@fp_gtk_widget_realize = internal global ptr null, align 8
@gtk2_window = internal global ptr null, align 8
@gtk2_widget = internal global ptr null, align 8
@gtk2_fixed = internal global ptr null, align 8

; Function Attrs: nounwind uwtable
define internal void @init_containers() #0 {
  %1 = load ptr, ptr @gtk2_window, align 8
  %2 = icmp eq ptr %1, null
  br i1 %2, label %3, label %15

3:                                                ; preds = %0
  %4 = load ptr, ptr @fp_gtk_window_new, align 8
  %5 = call ptr %4(i32 noundef 0)
  store ptr %5, ptr @gtk2_window, align 8
  %6 = load ptr, ptr @fp_gtk_fixed_new, align 8
  %7 = call ptr (...) %6()
  store ptr %7, ptr @gtk2_fixed, align 8
  %8 = load ptr, ptr @fp_gtk_container_add, align 8
  %9 = load ptr, ptr @gtk2_window, align 8
  %10 = load ptr, ptr @gtk2_fixed, align 8
  call void %8(ptr noundef %9, ptr noundef %10)
  %11 = load ptr, ptr @fp_gtk_widget_realize, align 8
  %12 = load ptr, ptr @gtk2_window, align 8
  call void %11(ptr noundef %12)
  %13 = load ptr, ptr @fp_gtk_widget_realize, align 8
  %14 = load ptr, ptr @gtk2_fixed, align 8
  call void %13(ptr noundef %14)
  br label %15

15:                                               ; preds = %3, %0
  ret void
}

; Function Attrs: nounwind uwtable
define internal i32 @gtk2_get_ythickness(ptr noundef %0, i32 noundef %1) #0 {
  %3 = alloca ptr, align 8
  %4 = alloca i32, align 4
  %5 = alloca ptr, align 8
  store ptr %0, ptr %3, align 8
  store i32 %1, ptr %4, align 4
  call void @init_containers()
  %6 = load i32, ptr %4, align 4
  %7 = call ptr @gtk2_get_widget(i32 noundef %6)
  store ptr %7, ptr @gtk2_widget, align 8
  %8 = load ptr, ptr @gtk2_widget, align 8
  %9 = getelementptr inbounds %struct._GtkWidget, ptr %8, i32 0, i32 5
  %10 = load ptr, ptr %9, align 8
  store ptr %10, ptr %5, align 8
  %11 = load ptr, ptr %5, align 8
  %12 = getelementptr inbounds %struct.GtkStyle, ptr %11, i32 0, i32 13
  %13 = load i32, ptr %12, align 4
  ret i32 %13
}