; Function Attrs: nounwind uwtable
define internal i32 @gtk2_get_ythickness(ptr nocapture readnone %0, i32 noundef %1) #0 {
  %3 = load ptr, ptr @gtk2_window, align 8
  %4 = icmp eq ptr %3, null
  br i1 %4, label %5, label %init_containers.exit

5:                                                ; preds = %2
  %6 = load ptr, ptr @fp_gtk_window_new, align 8
  %7 = tail call ptr %6(i32 noundef 0) #18
  store ptr %7, ptr @gtk2_window, align 8
  %8 = load ptr, ptr @fp_gtk_fixed_new, align 8
  %9 = tail call ptr (...) %8() #18
  store ptr %9, ptr @gtk2_fixed, align 8
  %10 = load ptr, ptr @fp_gtk_container_add, align 8
  %11 = load ptr, ptr @gtk2_window, align 8
  tail call void %10(ptr noundef %11, ptr noundef %9) #18
  %12 = load ptr, ptr @fp_gtk_widget_realize, align 8
  %13 = load ptr, ptr @gtk2_window, align 8
  tail call void %12(ptr noundef %13) #18
  %14 = load ptr, ptr @fp_gtk_widget_realize, align 8
  %15 = load ptr, ptr @gtk2_fixed, align 8
  tail call void %14(ptr noundef %15) #18
  br label %init_containers.exit

init_containers.exit:                             ; preds = %2, %5
  %16 = tail call fastcc ptr @gtk2_get_widget(i32 noundef %1)
  store ptr %16, ptr @gtk2_widget, align 8
  %17 = getelementptr inbounds i8, ptr %16, i64 48
  %18 = load ptr, ptr %17, align 8
  %19 = getelementptr inbounds i8, ptr %18, i64 540
  %20 = load i32, ptr %19, align 4
  ret i32 %20
}